target datalayout = "e-m:e-p270:32:32-p271:32:32-p272:64:64-i64:64-i128:128-f80:128-n8:16:32:64-S128"
target triple = "x86_64-pc-linux-gnu"

%struct.H5FD_srt_tmp_t = type { i64, i64 }

@H5FD_init_g = external global i8, align 1
@H5_libterm_g = external global i8, align 1

; Function Attrs: nounwind uwtable
define internal i32 @H5FD__srt_tmp_cmp(ptr noundef %0, ptr noundef %1) #0 {
  %3 = alloca ptr, align 8
  %4 = alloca ptr, align 8
  %5 = alloca i64, align 8
  %6 = alloca i64, align 8
  %7 = alloca i32, align 4
  store ptr %0, ptr %3, align 8, !tbaa !31
  store ptr %1, ptr %4, align 8, !tbaa !31
  call void @llvm.lifetime.start.p0(i64 8, ptr %5) #8
  %8 = load ptr, ptr %3, align 8, !tbaa !31
  %9 = getelementptr inbounds nuw %struct.H5FD_srt_tmp_t, ptr %8, i32 0, i32 0
  %10 = load i64, ptr %9, align 8, !tbaa !93
  store i64 %10, ptr %5, align 8, !tbaa !10
  call void @llvm.lifetime.start.p0(i64 8, ptr %6) #8
  %11 = load ptr, ptr %4, align 8, !tbaa !31
  %12 = getelementptr inbounds nuw %struct.H5FD_srt_tmp_t, ptr %11, i32 0, i32 0
  %13 = load i64, ptr %12, align 8, !tbaa !93
  store i64 %13, ptr %6, align 8, !tbaa !10
  call void @llvm.lifetime.start.p0(i64 4, ptr %7) #8
  store i32 0, ptr %7, align 4, !tbaa !12
  %14 = load i8, ptr @H5FD_init_g, align 1, !tbaa !14, !range !16, !noundef !17
  %15 = trunc i8 %14 to i1
  br i1 %15, label %20, label %16

16:                                               ; preds = %2
  %17 = load i8, ptr @H5_libterm_g, align 1, !tbaa !14, !range !16, !noundef !17
  %18 = trunc i8 %17 to i1
  %19 = xor i1 %18, true
  br label %20

20:                                               ; preds = %16, %2
  %21 = phi i1 [ true, %2 ], [ %19, %16 ]
  %22 = xor i1 %21, true
  %23 = xor i1 %22, true
  %24 = zext i1 %23 to i32
  %25 = sext i32 %24 to i64
  %26 = call i64 @llvm.expect.i64(i64 %25, i64 1)
  %27 = icmp ne i64 %26, 0
  br i1 %27, label %28, label %52

28:                                               ; preds = %20
  %29 = load i64, ptr %5, align 8, !tbaa !10
  %30 = icmp ne i64 %29, -1
  br i1 %30, label %31, label %39

31:                                               ; preds = %28
  %32 = load i64, ptr %6, align 8, !tbaa !10
  %33 = icmp ne i64 %32, -1
  br i1 %33, label %34, label %39

34:                                               ; preds = %31
  %35 = load i64, ptr %5, align 8, !tbaa !10
  %36 = load i64, ptr %6, align 8, !tbaa !10
  %37 = icmp ugt i64 %35, %36
  br i1 %37, label %38, label %39

38:                                               ; preds = %34
  store i32 1, ptr %7, align 4, !tbaa !12
  br label %51

39:                                               ; preds = %34, %31, %28
  %40 = load i64, ptr %5, align 8, !tbaa !10
  %41 = icmp ne i64 %40, -1
  br i1 %41, label %42, label %50

42:                                               ; preds = %39
  %43 = load i64, ptr %6, align 8, !tbaa !10
  %44 = icmp ne i64 %43, -1
  br i1 %44, label %45, label %50

45:                                               ; preds = %42
  %46 = load i64, ptr %5, align 8, !tbaa !10
  %47 = load i64, ptr %6, align 8, !tbaa !10
  %48 = icmp ult i64 %46, %47
  br i1 %48, label %49, label %50

49:                                               ; preds = %45
  store i32 -1, ptr %7, align 4, !tbaa !12
  br label %50

50:                                               ; preds = %49, %45, %42, %39
  br label %51

51:                                               ; preds = %50, %38
  br label %52

52:                                               ; preds = %51, %20
  %53 = load i32, ptr %7, align 4, !tbaa !12
  call void @llvm.lifetime.end.p0(i64 4, ptr %7) #8
  call void @llvm.lifetime.end.p0(i64 8, ptr %6) #8
  call void @llvm.lifetime.end.p0(i64 8, ptr %5) #8
  ret i32 %53
}