; Function Attrs: mustprogress nofree norecurse nosync nounwind willreturn memory(read, inaccessiblemem: none) uwtable
define internal range(i32 -1, 2) i32 @H5FD__srt_tmp_cmp(ptr noundef readonly captures(none) %0, ptr noundef readonly captures(none) %1) #9 {
  %3 = load i64, ptr %0, align 8, !tbaa !80
  %4 = load i64, ptr %1, align 8, !tbaa !80
  %5 = load i8, ptr @H5FD_init_g, align 1, !tbaa !3, !range !7, !noundef !8
  %6 = trunc nuw i8 %5 to i1
  %7 = load i8, ptr @H5_libterm_g, align 1, !range !7
  %8 = trunc nuw i8 %7 to i1
  %9 = xor i1 %8, true
  %10 = select i1 %6, i1 true, i1 %9
  br i1 %10, label %11, label %17, !prof !9

11:                                               ; preds = %2
  %12 = icmp ne i64 %3, -1
  %13 = icmp ne i64 %4, -1
  %or.cond = select i1 %12, i1 %13, i1 false
  %14 = icmp ugt i64 %3, %4
  %or.cond16 = select i1 %or.cond, i1 %14, i1 false
  %or.cond.not = xor i1 %or.cond, true
  %brmerge = or i1 %or.cond16, %or.cond.not
  %.mux = zext i1 %or.cond16 to i32
  br i1 %brmerge, label %17, label %15

15:                                               ; preds = %11
  %16 = icmp ult i64 %3, %4
  %spec.select = sext i1 %16 to i32
  br label %17

17:                                               ; preds = %15, %11, %2
  %.0 = phi i32 [ 0, %2 ], [ %.mux, %11 ], [ %spec.select, %15 ]
  ret i32 %.0
}